target datalayout = "e-m:e-p270:32:32-p271:32:32-p272:64:64-i64:64-i128:128-f80:128-n8:16:32:64-S128"
target triple = "x86_64-pc-linux-gnu"

%struct._e_guid_t = type { i32, i16, i16, [8 x i8] }
%struct._dcerpc_info = type { ptr, i32, i64, i8, i8, i8, i32, i32, i32, i32, i32, i32, i32, i32, ptr, ptr, ptr, ptr, %struct.anon }
%struct.anon = type { i8, ptr, ptr, ptr, i8 }
%struct._packet_info = type { ptr, ptr, i32, i32, %struct.nstime_t, %struct.nstime_t, %struct.nstime_t, i8, ptr, ptr, ptr, ptr, %struct._address, %struct._address, %struct._address, %struct._address, %struct._address, %struct._address, i32, ptr, i8, [3 x i8], %struct.anon.0, i32, i32, i32, i32, ptr, i8, ptr, ptr, i16, i16, i32, i32, i16, i32, i32, ptr, ptr, ptr, i8, i8, i16, i16, i16, i32, i16, i16, ptr, ptr, ptr, ptr, ptr, i32, i32 }
%struct.nstime_t = type { i64, i32 }
%struct._address = type { i32, i32, ptr, ptr }
%struct.anon.0 = type { i8, [3 x i8] }

@hf_fileexp_acl_len = internal global i32 0, align 4
@hf_fileexp_afsacl_uuid1 = internal global i32 0, align 4
@hf_fileexp_afsacl_defaultcell_uuid = internal global i32 0, align 4
@ett_fileexp_afsAcl = internal global i32 0, align 4
@.str.418 = private unnamed_addr constant [7 x i8] c"afsAcl\00", align 1
@.str.419 = private unnamed_addr constant [52 x i8] c" - %08x-%04x-%04x-%02x%02x-%02x%02x%02x%02x%02x%02x\00", align 1
@.str.420 = private unnamed_addr constant [51 x i8] c"  %08x-%04x-%04x-%02x%02x-%02x%02x%02x%02x%02x%02x\00", align 1

; Function Attrs: null_pointer_is_valid sspstrong uwtable
define internal i32 @dissect_afsAcl(ptr noundef %0, i32 noundef %1, ptr noundef %2, ptr noundef %3, ptr noundef %4, ptr noundef %5) #0 {
  %7 = alloca i32, align 4
  %8 = alloca ptr, align 8
  %9 = alloca i32, align 4
  %10 = alloca ptr, align 8
  %11 = alloca ptr, align 8
  %12 = alloca ptr, align 8
  %13 = alloca ptr, align 8
  %14 = alloca ptr, align 8
  %15 = alloca ptr, align 8
  %16 = alloca i32, align 4
  %17 = alloca i32, align 4
  %18 = alloca %struct._e_guid_t, align 4
  %19 = alloca %struct._e_guid_t, align 4
  %20 = alloca i32, align 4
  store ptr %0, ptr %8, align 8
  store i32 %1, ptr %9, align 4
  store ptr %2, ptr %10, align 8
  store ptr %3, ptr %11, align 8
  store ptr %4, ptr %12, align 8
  store ptr %5, ptr %13, align 8
  call void @llvm.lifetime.start.p0(i64 8, ptr %14) #4
  store ptr null, ptr %14, align 8
  call void @llvm.lifetime.start.p0(i64 8, ptr %15) #4
  call void @llvm.lifetime.start.p0(i64 4, ptr %16) #4
  %21 = load i32, ptr %9, align 4
  store i32 %21, ptr %16, align 4
  call void @llvm.lifetime.start.p0(i64 4, ptr %17) #4
  call void @llvm.lifetime.start.p0(i64 16, ptr %18) #4
  call void @llvm.lifetime.start.p0(i64 16, ptr %19) #4
  %22 = load ptr, ptr %12, align 8
  %23 = getelementptr inbounds nuw %struct._dcerpc_info, ptr %22, i32 0, i32 4
  %24 = load i8, ptr %23, align 1, !range !6, !noundef !7
  %25 = trunc i8 %24 to i1
  br i1 %25, label %26, label %28

26:                                               ; preds = %6
  %27 = load i32, ptr %9, align 4
  store i32 %27, ptr %7, align 4
  store i32 1, ptr %20, align 4
  br label %160

28:                                               ; preds = %6
  %29 = load ptr, ptr %11, align 8
  %30 = load ptr, ptr %8, align 8
  %31 = load i32, ptr %9, align 4
  %32 = load i32, ptr @ett_fileexp_afsAcl, align 4
  %33 = call ptr @proto_tree_add_subtree(ptr noundef %29, ptr noundef %30, i32 noundef %31, i32 noundef -1, i32 noundef %32, ptr noundef %14, ptr noundef @.str.418)
  store ptr %33, ptr %15, align 8
  %34 = load ptr, ptr %8, align 8
  %35 = load i32, ptr %9, align 4
  %36 = load ptr, ptr %10, align 8
  %37 = load ptr, ptr %15, align 8
  %38 = load ptr, ptr %12, align 8
  %39 = load ptr, ptr %13, align 8
  %40 = load i32, ptr @hf_fileexp_acl_len, align 4
  %41 = call i32 @dissect_ndr_uint32(ptr noundef %34, i32 noundef %35, ptr noundef %36, ptr noundef %37, ptr noundef %38, ptr noundef %39, i32 noundef %40, ptr noundef %17)
  store i32 %41, ptr %9, align 4
  %42 = load i32, ptr %9, align 4
  %43 = add i32 %42, 8
  store i32 %43, ptr %9, align 4
  %44 = load ptr, ptr %8, align 8
  %45 = load i32, ptr %9, align 4
  %46 = load ptr, ptr %10, align 8
  %47 = load ptr, ptr %15, align 8
  %48 = load ptr, ptr %12, align 8
  %49 = load ptr, ptr %13, align 8
  %50 = load i32, ptr @hf_fileexp_afsacl_uuid1, align 4
  %51 = call i32 @dissect_ndr_uuid_t(ptr noundef %44, i32 noundef %45, ptr noundef %46, ptr noundef %47, ptr noundef %48, ptr noundef %49, i32 noundef %50, ptr noundef %18)
  store i32 %51, ptr %9, align 4
  %52 = load ptr, ptr %10, align 8
  %53 = getelementptr inbounds nuw %struct._packet_info, ptr %52, i32 0, i32 1
  %54 = load ptr, ptr %53, align 8
  %55 = getelementptr inbounds nuw %struct._e_guid_t, ptr %18, i32 0, i32 0
  %56 = load i32, ptr %55, align 4
  %57 = getelementptr inbounds nuw %struct._e_guid_t, ptr %18, i32 0, i32 1
  %58 = load i16, ptr %57, align 4
  %59 = zext i16 %58 to i32
  %60 = getelementptr inbounds nuw %struct._e_guid_t, ptr %18, i32 0, i32 2
  %61 = load i16, ptr %60, align 2
  %62 = zext i16 %61 to i32
  %63 = getelementptr inbounds nuw %struct._e_guid_t, ptr %18, i32 0, i32 3
  %64 = getelementptr [8 x i8], ptr %63, i64 0, i64 0
  %65 = load i8, ptr %64, align 4
  %66 = zext i8 %65 to i32
  %67 = getelementptr inbounds nuw %struct._e_guid_t, ptr %18, i32 0, i32 3
  %68 = getelementptr [8 x i8], ptr %67, i64 0, i64 1
  %69 = load i8, ptr %68, align 1
  %70 = zext i8 %69 to i32
  %71 = getelementptr inbounds nuw %struct._e_guid_t, ptr %18, i32 0, i32 3
  %72 = getelementptr [8 x i8], ptr %71, i64 0, i64 2
  %73 = load i8, ptr %72, align 2
  %74 = zext i8 %73 to i32
  %75 = getelementptr inbounds nuw %struct._e_guid_t, ptr %18, i32 0, i32 3
  %76 = getelementptr [8 x i8], ptr %75, i64 0, i64 3
  %77 = load i8, ptr %76, align 1
  %78 = zext i8 %77 to i32
  %79 = getelementptr inbounds nuw %struct._e_guid_t, ptr %18, i32 0, i32 3
  %80 = getelementptr [8 x i8], ptr %79, i64 0, i64 4
  %81 = load i8, ptr %80, align 4
  %82 = zext i8 %81 to i32
  %83 = getelementptr inbounds nuw %struct._e_guid_t, ptr %18, i32 0, i32 3
  %84 = getelementptr [8 x i8], ptr %83, i64 0, i64 5
  %85 = load i8, ptr %84, align 1
  %86 = zext i8 %85 to i32
  %87 = getelementptr inbounds nuw %struct._e_guid_t, ptr %18, i32 0, i32 3
  %88 = getelementptr [8 x i8], ptr %87, i64 0, i64 6
  %89 = load i8, ptr %88, align 2
  %90 = zext i8 %89 to i32
  %91 = getelementptr inbounds nuw %struct._e_guid_t, ptr %18, i32 0, i32 3
  %92 = getelementptr [8 x i8], ptr %91, i64 0, i64 7
  %93 = load i8, ptr %92, align 1
  %94 = zext i8 %93 to i32
  call void (ptr, i32, ptr, ...) @col_append_fstr(ptr noundef %54, i32 noundef 25, ptr noundef @.str.419, i32 noundef %56, i32 noundef %59, i32 noundef %62, i32 noundef %66, i32 noundef %70, i32 noundef %74, i32 noundef %78, i32 noundef %82, i32 noundef %86, i32 noundef %90, i32 noundef %94)
  %95 = load ptr, ptr %8, align 8
  %96 = load i32, ptr %9, align 4
  %97 = load ptr, ptr %10, align 8
  %98 = load ptr, ptr %15, align 8
  %99 = load ptr, ptr %12, align 8
  %100 = load ptr, ptr %13, align 8
  %101 = load i32, ptr @hf_fileexp_afsacl_defaultcell_uuid, align 4
  %102 = call i32 @dissect_ndr_uuid_t(ptr noundef %95, i32 noundef %96, ptr noundef %97, ptr noundef %98, ptr noundef %99, ptr noundef %100, i32 noundef %101, ptr noundef %19)
  store i32 %102, ptr %9, align 4
  %103 = load ptr, ptr %10, align 8
  %104 = getelementptr inbounds nuw %struct._packet_info, ptr %103, i32 0, i32 1
  %105 = load ptr, ptr %104, align 8
  %106 = getelementptr inbounds nuw %struct._e_guid_t, ptr %19, i32 0, i32 0
  %107 = load i32, ptr %106, align 4
  %108 = getelementptr inbounds nuw %struct._e_guid_t, ptr %19, i32 0, i32 1
  %109 = load i16, ptr %108, align 4
  %110 = zext i16 %109 to i32
  %111 = getelementptr inbounds nuw %struct._e_guid_t, ptr %19, i32 0, i32 2
  %112 = load i16, ptr %111, align 2
  %113 = zext i16 %112 to i32
  %114 = getelementptr inbounds nuw %struct._e_guid_t, ptr %19, i32 0, i32 3
  %115 = getelementptr [8 x i8], ptr %114, i64 0, i64 0
  %116 = load i8, ptr %115, align 4
  %117 = zext i8 %116 to i32
  %118 = getelementptr inbounds nuw %struct._e_guid_t, ptr %19, i32 0, i32 3
  %119 = getelementptr [8 x i8], ptr %118, i64 0, i64 1
  %120 = load i8, ptr %119, align 1
  %121 = zext i8 %120 to i32
  %122 = getelementptr inbounds nuw %struct._e_guid_t, ptr %19, i32 0, i32 3
  %123 = getelementptr [8 x i8], ptr %122, i64 0, i64 2
  %124 = load i8, ptr %123, align 2
  %125 = zext i8 %124 to i32
  %126 = getelementptr inbounds nuw %struct._e_guid_t, ptr %19, i32 0, i32 3
  %127 = getelementptr [8 x i8], ptr %126, i64 0, i64 3
  %128 = load i8, ptr %127, align 1
  %129 = zext i8 %128 to i32
  %130 = getelementptr inbounds nuw %struct._e_guid_t, ptr %19, i32 0, i32 3
  %131 = getelementptr [8 x i8], ptr %130, i64 0, i64 4
  %132 = load i8, ptr %131, align 4
  %133 = zext i8 %132 to i32
  %134 = getelementptr inbounds nuw %struct._e_guid_t, ptr %19, i32 0, i32 3
  %135 = getelementptr [8 x i8], ptr %134, i64 0, i64 5
  %136 = load i8, ptr %135, align 1
  %137 = zext i8 %136 to i32
  %138 = getelementptr inbounds nuw %struct._e_guid_t, ptr %19, i32 0, i32 3
  %139 = getelementptr [8 x i8], ptr %138, i64 0, i64 6
  %140 = load i8, ptr %139, align 2
  %141 = zext i8 %140 to i32
  %142 = getelementptr inbounds nuw %struct._e_guid_t, ptr %19, i32 0, i32 3
  %143 = getelementptr [8 x i8], ptr %142, i64 0, i64 7
  %144 = load i8, ptr %143, align 1
  %145 = zext i8 %144 to i32
  call void (ptr, i32, ptr, ...) @col_append_fstr(ptr noundef %105, i32 noundef 25, ptr noundef @.str.420, i32 noundef %107, i32 noundef %110, i32 noundef %113, i32 noundef %117, i32 noundef %121, i32 noundef %125, i32 noundef %129, i32 noundef %133, i32 noundef %137, i32 noundef %141, i32 noundef %145)
  %146 = load i32, ptr %17, align 4
  %147 = icmp ult i32 %146, 38
  br i1 %147, label %148, label %150

148:                                              ; preds = %28
  %149 = load i32, ptr %9, align 4
  store i32 %149, ptr %7, align 4
  store i32 1, ptr %20, align 4
  br label %160

150:                                              ; preds = %28
  %151 = load i32, ptr %17, align 4
  %152 = sub i32 %151, 38
  %153 = load i32, ptr %9, align 4
  %154 = add i32 %153, %152
  store i32 %154, ptr %9, align 4
  %155 = load ptr, ptr %14, align 8
  %156 = load i32, ptr %9, align 4
  %157 = load i32, ptr %16, align 4
  %158 = sub i32 %156, %157
  call void @proto_item_set_len(ptr noundef %155, i32 noundef %158)
  %159 = load i32, ptr %9, align 4
  store i32 %159, ptr %7, align 4
  store i32 1, ptr %20, align 4
  br label %160

160:                                              ; preds = %150, %148, %26
  call void @llvm.lifetime.end.p0(i64 16, ptr %19) #4
  call void @llvm.lifetime.end.p0(i64 16, ptr %18) #4
  call void @llvm.lifetime.end.p0(i64 4, ptr %17) #4
  call void @llvm.lifetime.end.p0(i64 4, ptr %16) #4
  call void @llvm.lifetime.end.p0(i64 8, ptr %15) #4
  call void @llvm.lifetime.end.p0(i64 8, ptr %14) #4
  %161 = load i32, ptr %7, align 4
  ret i32 %161
}