; Function Attrs: null_pointer_is_valid sspstrong uwtable
define internal i32 @dissect_afsAcl(ptr noundef %0, i32 noundef %1, ptr noundef %2, ptr noundef %3, ptr noundef %4, ptr noundef %5) #0 {
  %7 = alloca ptr, align 8
  %8 = alloca i32, align 4
  %9 = alloca %struct._e_guid_t, align 4
  %10 = alloca %struct._e_guid_t, align 4
  call void @llvm.lifetime.start.p0(i64 8, ptr nonnull %7) #4
  store ptr null, ptr %7, align 8
  call void @llvm.lifetime.start.p0(i64 4, ptr nonnull %8) #4
  call void @llvm.lifetime.start.p0(i64 16, ptr nonnull %9) #4
  call void @llvm.lifetime.start.p0(i64 16, ptr nonnull %10) #4
  %11 = getelementptr inbounds nuw i8, ptr %4, i64 25
  %12 = load i8, ptr %11, align 1, !range !6, !noundef !7
  %13 = trunc nuw i8 %12 to i1
  br i1 %13, label %96, label %14

14:                                               ; preds = %6
  %15 = load i32, ptr @ett_fileexp_afsAcl, align 4
  %16 = call ptr @proto_tree_add_subtree(ptr noundef %3, ptr noundef %0, i32 noundef %1, i32 noundef -1, i32 noundef %15, ptr noundef nonnull %7, ptr noundef nonnull @.str.418)
  %17 = load i32, ptr @hf_fileexp_acl_len, align 4
  %18 = call i32 @dissect_ndr_uint32(ptr noundef %0, i32 noundef %1, ptr noundef %2, ptr noundef %16, ptr noundef %4, ptr noundef %5, i32 noundef %17, ptr noundef nonnull %8)
  %19 = add i32 %18, 8
  %20 = load i32, ptr @hf_fileexp_afsacl_uuid1, align 4
  %21 = call i32 @dissect_ndr_uuid_t(ptr noundef %0, i32 noundef %19, ptr noundef %2, ptr noundef %16, ptr noundef %4, ptr noundef %5, i32 noundef %20, ptr noundef nonnull %9)
  %22 = getelementptr inbounds nuw i8, ptr %2, i64 8
  %23 = load ptr, ptr %22, align 8
  %24 = load i32, ptr %9, align 4
  %25 = getelementptr inbounds nuw i8, ptr %9, i64 4
  %26 = load i16, ptr %25, align 4
  %27 = zext i16 %26 to i32
  %28 = getelementptr inbounds nuw i8, ptr %9, i64 6
  %29 = load i16, ptr %28, align 2
  %30 = zext i16 %29 to i32
  %31 = getelementptr inbounds nuw i8, ptr %9, i64 8
  %32 = load i8, ptr %31, align 4
  %33 = zext i8 %32 to i32
  %34 = getelementptr inbounds nuw i8, ptr %9, i64 9
  %35 = load i8, ptr %34, align 1
  %36 = zext i8 %35 to i32
  %37 = getelementptr inbounds nuw i8, ptr %9, i64 10
  %38 = load i8, ptr %37, align 2
  %39 = zext i8 %38 to i32
  %40 = getelementptr inbounds nuw i8, ptr %9, i64 11
  %41 = load i8, ptr %40, align 1
  %42 = zext i8 %41 to i32
  %43 = getelementptr inbounds nuw i8, ptr %9, i64 12
  %44 = load i8, ptr %43, align 4
  %45 = zext i8 %44 to i32
  %46 = getelementptr inbounds nuw i8, ptr %9, i64 13
  %47 = load i8, ptr %46, align 1
  %48 = zext i8 %47 to i32
  %49 = getelementptr inbounds nuw i8, ptr %9, i64 14
  %50 = load i8, ptr %49, align 2
  %51 = zext i8 %50 to i32
  %52 = getelementptr inbounds nuw i8, ptr %9, i64 15
  %53 = load i8, ptr %52, align 1
  %54 = zext i8 %53 to i32
  call void (ptr, i32, ptr, ...) @col_append_fstr(ptr noundef %23, i32 noundef 25, ptr noundef nonnull @.str.419, i32 noundef %24, i32 noundef %27, i32 noundef %30, i32 noundef %33, i32 noundef %36, i32 noundef %39, i32 noundef %42, i32 noundef %45, i32 noundef %48, i32 noundef %51, i32 noundef %54)
  %55 = load i32, ptr @hf_fileexp_afsacl_defaultcell_uuid, align 4
  %56 = call i32 @dissect_ndr_uuid_t(ptr noundef %0, i32 noundef %21, ptr noundef %2, ptr noundef %16, ptr noundef %4, ptr noundef %5, i32 noundef %55, ptr noundef nonnull %10)
  %57 = load ptr, ptr %22, align 8
  %58 = load i32, ptr %10, align 4
  %59 = getelementptr inbounds nuw i8, ptr %10, i64 4
  %60 = load i16, ptr %59, align 4
  %61 = zext i16 %60 to i32
  %62 = getelementptr inbounds nuw i8, ptr %10, i64 6
  %63 = load i16, ptr %62, align 2
  %64 = zext i16 %63 to i32
  %65 = getelementptr inbounds nuw i8, ptr %10, i64 8
  %66 = load i8, ptr %65, align 4
  %67 = zext i8 %66 to i32
  %68 = getelementptr inbounds nuw i8, ptr %10, i64 9
  %69 = load i8, ptr %68, align 1
  %70 = zext i8 %69 to i32
  %71 = getelementptr inbounds nuw i8, ptr %10, i64 10
  %72 = load i8, ptr %71, align 2
  %73 = zext i8 %72 to i32
  %74 = getelementptr inbounds nuw i8, ptr %10, i64 11
  %75 = load i8, ptr %74, align 1
  %76 = zext i8 %75 to i32
  %77 = getelementptr inbounds nuw i8, ptr %10, i64 12
  %78 = load i8, ptr %77, align 4
  %79 = zext i8 %78 to i32
  %80 = getelementptr inbounds nuw i8, ptr %10, i64 13
  %81 = load i8, ptr %80, align 1
  %82 = zext i8 %81 to i32
  %83 = getelementptr inbounds nuw i8, ptr %10, i64 14
  %84 = load i8, ptr %83, align 2
  %85 = zext i8 %84 to i32
  %86 = getelementptr inbounds nuw i8, ptr %10, i64 15
  %87 = load i8, ptr %86, align 1
  %88 = zext i8 %87 to i32
  call void (ptr, i32, ptr, ...) @col_append_fstr(ptr noundef %57, i32 noundef 25, ptr noundef nonnull @.str.420, i32 noundef %58, i32 noundef %61, i32 noundef %64, i32 noundef %67, i32 noundef %70, i32 noundef %73, i32 noundef %76, i32 noundef %79, i32 noundef %82, i32 noundef %85, i32 noundef %88)
  %89 = load i32, ptr %8, align 4
  %90 = icmp ult i32 %89, 38
  br i1 %90, label %96, label %91

91:                                               ; preds = %14
  %92 = add i32 %56, -38
  %93 = add i32 %92, %89
  %94 = load ptr, ptr %7, align 8
  %95 = sub i32 %93, %1
  call void @proto_item_set_len(ptr noundef %94, i32 noundef %95)
  br label %96

96:                                               ; preds = %14, %6, %91
  %.0 = phi i32 [ %93, %91 ], [ %1, %6 ], [ %56, %14 ]
  call void @llvm.lifetime.end.p0(i64 16, ptr nonnull %10) #4
  call void @llvm.lifetime.end.p0(i64 16, ptr nonnull %9) #4
  call void @llvm.lifetime.end.p0(i64 4, ptr nonnull %8) #4
  call void @llvm.lifetime.end.p0(i64 8, ptr nonnull %7) #4
  ret i32 %.0
}